; Function Attrs: mustprogress uwtable
define dso_local noundef zeroext i1 @_ZNK4Type10needs_castEPKS_(ptr noundef nonnull readonly align 8 dereferenceable(136) %0, ptr noundef readonly %1) local_unnamed_addr #4 align 2 {
  %3 = load i32, ptr %0, align 8
  %4 = icmp eq i32 %3, 1
  br i1 %4, label %.preheader, label %_ZNK4Type13is_equivalentEPKS_.exit

.preheader:                                       ; preds = %2, %.preheader
  %.0.i = phi ptr [ %6, %.preheader ], [ %0, %2 ]
  %5 = getelementptr inbounds i8, ptr %.0.i, i64 8
  %6 = load ptr, ptr %5, align 8
  %.not.i = icmp eq ptr %6, null
  br i1 %.not.i, label %_ZNK4Type13get_base_typeEv.exit, label %.preheader, !llvm.loop !45

_ZNK4Type13get_base_typeEv.exit:                  ; preds = %.preheader, %_ZNK4Type13get_base_typeEv.exit
  %.0.i2 = phi ptr [ %8, %_ZNK4Type13get_base_typeEv.exit ], [ %1, %.preheader ]
  %7 = getelementptr inbounds i8, ptr %.0.i2, i64 8
  %8 = load ptr, ptr %7, align 8
  %.not.i3 = icmp eq ptr %8, null
  br i1 %.not.i3, label %_ZNK4Type13get_base_typeEv.exit4, label %_ZNK4Type13get_base_typeEv.exit, !llvm.loop !45

_ZNK4Type13get_base_typeEv.exit4:                 ; preds = %_ZNK4Type13get_base_typeEv.exit
  %9 = icmp eq ptr %.0.i, %.0.i2
  br i1 %9, label %_ZNK4Type13is_equivalentEPKS_.exit, label %10

10:                                               ; preds = %_ZNK4Type13get_base_typeEv.exit4
  %11 = load i32, ptr %.0.i, align 8
  %12 = icmp eq i32 %11, 0
  br i1 %12, label %_ZNK4Type9is_signedEv.exit.i, label %_ZNK4Type13is_equivalentEPKS_.exit

_ZNK4Type9is_signedEv.exit.i:                     ; preds = %10
  %13 = getelementptr inbounds i8, ptr %.0.i, i64 16
  %14 = load i32, ptr %13, align 8
  %15 = icmp ugt i32 %14, 13
  %switch.cast = trunc i32 %14 to i14
  %switch.downshift = lshr i14 5183, %switch.cast
  %16 = and i14 %switch.downshift, 1
  %switch.masked = icmp ne i14 %16, 0
  %.0.i.i = select i1 %15, i1 true, i1 %switch.masked
  %17 = load i32, ptr %.0.i2, align 8
  %cond.i7.i = icmp eq i32 %17, 0
  br i1 %cond.i7.i, label %18, label %_ZNK4Type9is_signedEv.exit9.thr_comm.i

18:                                               ; preds = %_ZNK4Type9is_signedEv.exit.i
  %19 = getelementptr inbounds i8, ptr %.0.i2, i64 16
  %20 = load i32, ptr %19, align 8
  switch i32 %20, label %_ZNK4Type9is_signedEv.exit9.i [
    i32 6, label %_ZNK4Type9is_signedEv.exit9.thr_comm.i
    i32 7, label %_ZNK4Type9is_signedEv.exit9.thr_comm.i
    i32 8, label %_ZNK4Type9is_signedEv.exit9.thr_comm.i
    i32 9, label %_ZNK4Type9is_signedEv.exit9.thr_comm.i
    i32 11, label %_ZNK4Type9is_signedEv.exit9.thr_comm.i
    i32 13, label %_ZNK4Type9is_signedEv.exit9.thr_comm.i
  ]

_ZNK4Type9is_signedEv.exit9.thr_comm.i:           ; preds = %18, %18, %18, %18, %18, %18, %_ZNK4Type9is_signedEv.exit.i
  br i1 %.0.i.i, label %_ZNK4Type13is_equivalentEPKS_.exit, label %21

_ZNK4Type9is_signedEv.exit9.i:                    ; preds = %18
  br i1 %.0.i.i, label %21, label %_ZNK4Type13is_equivalentEPKS_.exit

21:                                               ; preds = %_ZNK4Type9is_signedEv.exit9.i, %_ZNK4Type9is_signedEv.exit9.thr_comm.i
  %22 = tail call noundef i64 @_ZNK4Type11SizeInBytesEv(ptr noundef nonnull align 8 dereferenceable(136) %.0.i)
  %23 = tail call noundef i64 @_ZNK4Type11SizeInBytesEv(ptr noundef nonnull align 8 dereferenceable(136) %.0.i2)
  %24 = icmp ne i64 %22, %23
  br label %_ZNK4Type13is_equivalentEPKS_.exit

_ZNK4Type13is_equivalentEPKS_.exit:               ; preds = %21, %_ZNK4Type9is_signedEv.exit9.i, %_ZNK4Type9is_signedEv.exit9.thr_comm.i, %10, %_ZNK4Type13get_base_typeEv.exit4, %2
  %25 = phi i1 [ false, %2 ], [ false, %_ZNK4Type13get_base_typeEv.exit4 ], [ true, %_ZNK4Type9is_signedEv.exit9.i ], [ %24, %21 ], [ true, %10 ], [ true, %_ZNK4Type9is_signedEv.exit9.thr_comm.i ]
  ret i1 %25
}